Certificate:
    Data:
        Version: 3 (0x2)
        Serial Number: 1 (0x1)
        Signature Algorithm: sha256WithRSAEncryption
        Issuer: C=PH, ST=MA, L=Antipolo City, O=RADeveloper, OU=TKNerwork, CN=RADeveloper CA/name=RADeveloper/emailAddress=ericlaylay@gmail.com
        Validity
            Not Before: Sep 20 03:54:08 2022 GMT
            Not After : Sep 17 03:54:08 2032 GMT
        Subject: C=PH, ST=CA, L=Antipolo City, O=RADeveloper, OU=TKNerwork, CN=RADeveloper/name=RADeveloper/emailAddress=ericlaylay@gmail.com
        Subject Public Key Info:
            Public Key Algorithm: rsaEncryption
                RSA Public-Key: (2048 bit)
                Modulus:
                    00:b5:eb:a1:de:45:39:54:a9:12:db:91:b0:68:ac:
                    77:39:7e:4d:ee:5c:ae:6c:2f:57:a7:70:a6:19:39:
                    19:b0:46:75:6d:50:81:9d:3c:43:5a:21:49:84:b1:
                    fa:68:67:2e:05:ba:ec:e1:08:3b:70:07:77:32:03:
                    19:65:7c:af:d5:10:97:8a:3a:af:11:66:ee:42:b2:
                    90:b5:1a:34:28:55:76:0f:a3:ac:f3:e9:1d:fc:d7:
                    5f:7c:89:50:3b:7e:0f:49:61:97:b7:79:b5:c6:29:
                    2a:c5:e3:ef:38:43:77:12:cb:06:d0:e1:2c:4a:38:
                    fe:0a:33:ec:2c:b7:79:bf:b9:fa:d7:ea:2c:9f:02:
                    4f:10:eb:0a:6f:05:5a:50:01:dc:50:93:71:03:b9:
                    63:34:53:9e:30:9d:23:64:66:e8:9c:73:19:85:39:
                    b6:79:b4:55:1d:9d:2a:e0:df:4c:b2:5a:c2:e9:0e:
                    59:a2:3a:70:34:6a:9c:8a:09:34:1d:5e:29:a9:b6:
                    5b:16:ce:9e:c5:6c:50:d6:4d:10:09:60:f6:c9:00:
                    81:29:e3:a1:4c:10:fb:fe:a5:14:d6:b5:2a:e0:72:
                    50:2f:50:dc:bc:34:8d:ca:e2:fb:78:06:4d:b5:cd:
                    fe:9a:cd:2a:b7:c9:79:32:66:4a:bf:d3:d0:04:25:
                    9e:d5
                Exponent: 65537 (0x10001)
        X509v3 extensions:
            X509v3 Basic Constraints: 
                CA:FALSE
            Netscape Cert Type: 
                SSL Server
            Netscape Comment: 
                Easy-RSA Generated Server Certificate
            X509v3 Subject Key Identifier: 
                28:1D:A2:5E:3A:50:2C:3A:E0:B0:54:57:D6:11:02:FC:D6:1F:FF:35
            X509v3 Authority Key Identifier: 
                keyid:DB:6B:D9:7E:CC:36:11:1E:67:E8:45:B0:07:26:88:17:F6:8B:F3:AB
                DirName:/C=PH/ST=MA/L=Antipolo City/O=RADeveloper/OU=TKNerwork/CN=RADeveloper CA/name=RADeveloper/emailAddress=ericlaylay@gmail.com
                serial:52:67:60:3D:A2:29:17:35:5F:CA:B9:4A:8E:E2:80:74:F3:CE:64:EB

            X509v3 Extended Key Usage: 
                TLS Web Server Authentication
            X509v3 Key Usage: 
                Digital Signature, Key Encipherment
            X509v3 Subject Alternative Name: 
                DNS:[server]
    Signature Algorithm: sha256WithRSAEncryption
         0c:5a:d1:93:48:73:de:35:f0:1b:b5:88:71:be:ce:04:e0:f7:
         c3:b1:ef:48:05:2f:20:ff:68:6c:e6:10:0f:d2:65:6b:57:e4:
         cc:36:af:4c:ec:d4:0c:46:4c:76:5a:7d:20:74:92:67:41:5f:
         74:27:3b:48:39:51:65:ff:86:3b:1b:6a:15:b1:11:99:45:cd:
         03:0e:e2:46:5d:c0:19:e0:07:0c:18:1e:6e:a1:f6:f2:32:b5:
         3d:91:27:0a:e8:ae:e5:22:a0:f1:87:9f:b8:ba:d8:eb:6b:2b:
         82:8d:e4:2e:66:0a:2a:1f:f6:bb:ee:6a:92:8f:c7:77:0d:ee:
         68:96:58:ce:52:c5:6a:c5:7a:24:fd:ee:83:ba:0b:4e:28:b6:
         92:60:f1:ce:24:bc:9e:a5:ca:73:d3:cc:69:48:a4:8b:31:c3:
         7f:41:d1:31:2d:1e:e8:c7:4f:5d:d6:c1:e8:8d:b7:44:49:0a:
         5a:6c:ea:44:a3:70:19:12:2d:a9:d1:90:bd:3a:3d:4b:85:c0:
         35:d0:03:94:1f:de:68:1c:a0:5d:f0:b9:6c:40:68:97:1a:25:
         c1:5a:a0:cc:a9:51:68:d5:37:be:74:e4:23:0a:fd:74:92:54:
         9e:2f:fc:65:56:d1:27:3b:05:01:b4:c1:b4:a9:10:8d:70:30:
         a0:b6:74:55
-----BEGIN CERTIFICATE-----
MIIFazCCBFOgAwIBAgIBATANBgkqhkiG9w0BAQsFADCBqjELMAkGA1UEBhMCUEgx
CzAJBgNVBAgTAk1BMRYwFAYDVQQHEw1BbnRpcG9sbyBDaXR5MRIwEAYDVQQKEwlU
S05ldHdvcmsxEjAQBgNVBAsTCVRLTmVyd29yazEVMBMGA1UEAxMMVEtOZXR3b3Jr
IENBMRIwEAYDVQQpEwlUS05ldHdvcmsxIzAhBgkqhkiG9w0BCQEWFGVyaWNsYXls
YXlAZ21haWwuY29tMB4XDTIyMDkyMDAzNTQwOFoXDTMyMDkxNzAzNTQwOFowgacx
CzAJBgNVBAYTAlBIMQswCQYDVQQIEwJDQTEWMBQGA1UEBxMNQW50aXBvbG8gQ2l0
eTESMBAGA1UEChMJVEtOZXR3b3JrMRIwEAYDVQQLEwlUS05lcndvcmsxEjAQBgNV
BAMTCVRLTmV0d29yazESMBAGA1UEKRMJVEtOZXR3b3JrMSMwIQYJKoZIhvcNAQkB
FhRlcmljbGF5bGF5QGdtYWlsLmNvbTCCASIwDQYJKoZIhvcNAQEBBQADggEPADCC
AQoCggEBALXrod5FOVSpEtuRsGisdzl+Te5crmwvV6dwphk5GbBGdW1QgZ08Q1oh
SYSx+mhnLgW67OEIO3AHdzIDGWV8r9UQl4o6rxFm7kKykLUaNChVdg+jrPPpHfzX
X3yJUDt+D0lhl7d5tcYpKsXj7zhDdxLLBtDhLEo4/goz7Cy3eb+5+tfqLJ8CTxDr
Cm8FWlAB3FCTcQO5YzRTnjCdI2Rm6JxzGYU5tnm0VR2dKuDfTLJawukOWaI6cDRq
nIoJNB1eKam2WxbOnsVsUNZNEAlg9skAgSnjoUwQ+/6lFNa1KuByUC9Q3Lw0jcri
+3gGTbXN/prNKrfJeTJmSr/T0AQlntUCAwEAAaOCAZswggGXMAkGA1UdEwQCMAAw
EQYJYIZIAYb4QgEBBAQDAgZAMDQGCWCGSAGG+EIBDQQnFiVFYXN5LVJTQSBHZW5l
cmF0ZWQgU2VydmVyIENlcnRpZmljYXRlMB0GA1UdDgQWBBQoHaJeOlAsOuCwVFfW
EQL81h//NTCB6gYDVR0jBIHiMIHfgBTba9l+zDYRHmfoRbAHJogX9ovzq6GBsKSB
rTCBqjELMAkGA1UEBhMCUEgxCzAJBgNVBAgTAk1BMRYwFAYDVQQHEw1BbnRpcG9s
byBDaXR5MRIwEAYDVQQKEwlUS05ldHdvcmsxEjAQBgNVBAsTCVRLTmVyd29yazEV
MBMGA1UEAxMMVEtOZXR3b3JrIENBMRIwEAYDVQQpEwlUS05ldHdvcmsxIzAhBgkq
hkiG9w0BCQEWFGVyaWNsYXlsYXlAZ21haWwuY29tghRSZ2A9oikXNV/KuUqO4oB0
885k6zATBgNVHSUEDDAKBggrBgEFBQcDATALBgNVHQ8EBAMCBaAwEwYDVR0RBAww
CoIIW3NlcnZlcl0wDQYJKoZIhvcNAQELBQADggEBAAxa0ZNIc9418Bu1iHG+zgTg
98Ox70gFLyD/aGzmEA/SZWtX5Mw2r0zs1AxGTHZafSB0kmdBX3QnO0g5UWX/hjsb
ahWxEZlFzQMO4kZdwBngBwwYHm6h9vIytT2RJwroruUioPGHn7i62OtrK4KN5C5m
Ciof9rvuapKPx3cN7miWWM5SxWrFeiT97oO6C04otpJg8c4kvJ6lynPTzGlIpIsx
w39B0TEtHujHT13WweiNt0RJClps6kSjcBkSLanRkL06PUuFwDXQA5Qf3mgcoF3w
uWxAaJcaJcFaoMypUWjVN7505CMK/XSSVJ4v/GVW0Sc7BQG0wbSpEI1wMKC2dFU=
-----END CERTIFICATE-----
